(dp1
S'OriginalConfig'
p2
ccopy_reg
_reconstructor
p3
(cWMCore.Configuration
Configuration
p4
c__builtin__
object
p5
NtRp6
(dp7
S'Site'
p8
g3
(cWMCore.Configuration
ConfigSection
p9
g5
NtRp10
(dp11
S'_internal_skipChecks'
p12
I00
sS'_internal_documentation'
p13
S''
sS'_internal_settings'
p14
c__builtin__
set
p15
((lp16
S'storageSite'
p17
atRp18
sS'_internal_name'
p19
g8
sS'_internal_docstrings'
p20
(dp21
sS'_internal_children'
p22
g15
((ltRp23
sg17
S'T3_US_FNALLPC'
p24
sS'_internal_parent_ref'
p25
NsbsS'_internal_sections'
p26
(lp27
S'General'
p28
aS'JobType'
p29
aS'Data'
p30
ag8
aS'User'
p31
aS'Debug'
p32
asg28
g3
(g9
g5
NtRp33
(dp34
g12
I00
sg13
S''
sg14
g15
((ltRp35
sg19
g28
sg20
(dp36
sg22
g15
((ltRp37
sg25
NsbsS'_internal_webapps'
p38
(lp39
sg31
g3
(g9
g5
NtRp40
(dp41
g12
I00
sg13
S''
sg14
g15
((ltRp42
sg19
g31
sg20
(dp43
sg22
g15
((ltRp44
sg25
NsbsS'_internal_components'
p45
(lp46
sg32
g3
(g9
g5
NtRp47
(dp48
g12
I00
sg13
S''
sg14
g15
((ltRp49
sg19
g32
sg20
(dp50
sg22
g15
((ltRp51
sg25
Nsbsg30
g3
(g9
g5
NtRp52
(dp53
S'inputDataset'
p54
S'/VBF_HToInvisible_M125_14TeV_powheg_pythia8/PhaseIITDRFall17MiniAOD-PU200_93X_upgrade2023_realistic_v2-v1/MINIAODSIM'
p55
sS'allowNonValidInputDataset'
p56
I01
sg12
I00
sS'splitting'
p57
S'FileBased'
p58
sS'unitsPerJob'
p59
I1
sg13
S''
sg14
g15
((lp60
g54
ag56
aS'publication'
p61
ag59
aS'inputDBS'
p62
ag57
atRp63
sg19
g30
sg62
S'global'
p64
sg20
(dp65
sg22
g15
((ltRp66
sg25
Nsg61
I00
sbsg29
g3
(g9
g5
NtRp67
(dp68
S'outputFiles'
p69
(lp70
S'analysis.root'
p71
asg12
I00
sg13
S''
sg14
g15
((lp72
S'psetName'
p73
aS'pluginName'
p74
aS'inputFiles'
p75
ag69
aS'allowUndistributedCMSSW'
p76
atRp77
sg19
g29
sg20
(dp78
sg74
S'Analysis'
p79
sg22
g15
((ltRp80
sg76
I01
sg73
S'../../../TT-MC-Up.py'
p81
sg25
Nsg75
(lp82
S'../../../Configuration/data/PhaseIISummer16_25nsV3_MC.db'
p83
asbsbsS'voGroup'
p84
S''
sS'Server'
p85
S'cmsweb.cern.ch'
p86
sS'instance'
p87
S'prod'
p88
sS'RequestName'
p89
V171115_234423:shigginb_crab_20171115_174356
p90
sS'voRole'
p91
S'NULL'
p92
sS'Port'
p93
S''
s.