(dp1
S'OriginalConfig'
p2
ccopy_reg
_reconstructor
p3
(cWMCore.Configuration
Configuration
p4
c__builtin__
object
p5
NtRp6
(dp7
S'Site'
p8
g3
(cWMCore.Configuration
ConfigSection
p9
g5
NtRp10
(dp11
S'_internal_skipChecks'
p12
I00
sS'_internal_documentation'
p13
S''
sS'_internal_settings'
p14
c__builtin__
set
p15
((lp16
S'storageSite'
p17
atRp18
sS'_internal_name'
p19
g8
sS'_internal_docstrings'
p20
(dp21
sS'_internal_children'
p22
g15
((ltRp23
sg17
S'T3_US_FNALLPC'
p24
sS'_internal_parent_ref'
p25
NsbsS'_internal_sections'
p26
(lp27
S'General'
p28
aS'JobType'
p29
aS'Data'
p30
ag8
aS'User'
p31
aS'Debug'
p32
asg28
g3
(g9
g5
NtRp33
(dp34
g12
I00
sg13
S''
sg14
g15
((lp35
S'workArea'
p36
aS'requestName'
p37
atRp38
sg19
g28
sg20
(dp39
sg22
g15
((ltRp40
sg37
S''
sg25
Nsg36
S'CP_Higgs_2016'
p41
sbsS'_internal_webapps'
p42
(lp43
sg31
g3
(g9
g5
NtRp44
(dp45
g12
I00
sg13
S''
sg14
g15
((ltRp46
sg19
g31
sg20
(dp47
sg22
g15
((ltRp48
sg25
NsbsS'_internal_components'
p49
(lp50
sg32
g3
(g9
g5
NtRp51
(dp52
g12
I00
sg13
S''
sg14
g15
((ltRp53
sg19
g32
sg20
(dp54
sg22
g15
((ltRp55
sg25
Nsbsg30
g3
(g9
g5
NtRp56
(dp57
S'inputDataset'
p58
S'/VBFHiggs0Mf05ph0_M-125_13TeV-JHUGenV6/RunIISummer16MiniAODv2-PUMoriond17_80X_mcRun2_asymptotic_2016_TrancheIV_v6-v1/MINIAODSIM'
p59
sg12
I00
sS'splitting'
p60
S'FileBased'
p61
sS'unitsPerJob'
p62
I1
sg13
S''
sg14
g15
((lp63
g58
ag62
aS'publication'
p64
aS'inputDBS'
p65
ag60
atRp66
sg19
g30
sg65
S'global'
p67
sg20
(dp68
sg22
g15
((ltRp69
sg25
Nsg64
I00
sbsg29
g3
(g9
g5
NtRp70
(dp71
S'outputFiles'
p72
(lp73
S'analysis.root'
p74
asg12
I00
sg13
S''
sg14
g15
((lp75
S'psetName'
p76
aS'pluginName'
p77
aS'inputFiles'
p78
ag72
aS'allowUndistributedCMSSW'
p79
atRp80
sg19
g29
sg20
(dp81
sg77
S'Analysis'
p82
sg22
g15
((ltRp83
sg79
I01
sg76
S'../../../cp-mc.py'
p84
sg25
Nsg78
(lp85
S'../../../Configuration/data/Summer16_23Sep2016V4_MC.db'
p86
asbsbsS'voGroup'
p87
S''
sS'Server'
p88
S'cmsweb.cern.ch'
p89
sS'instance'
p90
S'prod'
p91
sS'RequestName'
p92
V180223_213348:shigginb_crab_20180223_153232
p93
sS'voRole'
p94
S'NULL'
p95
sS'Port'
p96
S''
s.