(dp1
S'OriginalConfig'
p2
ccopy_reg
_reconstructor
p3
(cWMCore.Configuration
Configuration
p4
c__builtin__
object
p5
NtRp6
(dp7
S'Site'
p8
g3
(cWMCore.Configuration
ConfigSection
p9
g5
NtRp10
(dp11
S'_internal_skipChecks'
p12
I00
sS'_internal_documentation'
p13
S''
sS'_internal_settings'
p14
c__builtin__
set
p15
((lp16
S'storageSite'
p17
atRp18
sS'_internal_name'
p19
g8
sS'_internal_docstrings'
p20
(dp21
sS'_internal_children'
p22
g15
((ltRp23
sg17
S'T3_US_FNALLPC'
p24
sS'_internal_parent_ref'
p25
NsbsS'_internal_sections'
p26
(lp27
S'General'
p28
aS'JobType'
p29
aS'Data'
p30
ag8
aS'User'
p31
aS'Debug'
p32
asg28
g3
(g9
g5
NtRp33
(dp34
g12
I00
sg13
S''
sg14
g15
((ltRp35
sg19
g28
sg20
(dp36
sg22
g15
((ltRp37
sg25
NsbsS'_internal_webapps'
p38
(lp39
sg31
g3
(g9
g5
NtRp40
(dp41
g12
I00
sg13
S''
sg14
g15
((ltRp42
sg19
g31
sg20
(dp43
sg22
g15
((ltRp44
sg25
NsbsS'_internal_components'
p45
(lp46
sg32
g3
(g9
g5
NtRp47
(dp48
g12
I00
sg13
S''
sg14
g15
((ltRp49
sg19
g32
sg20
(dp50
sg22
g15
((ltRp51
sg25
Nsbsg30
g3
(g9
g5
NtRp52
(dp53
S'inputDataset'
p54
S'/WZTo3LNu_1Jets_14TeV-madgraphMLM-pythia8/PhaseIITDRFall17MiniAOD-PU200_93X_upgrade2023_realistic_v2-v1/MINIAODSIM'
p55
sg12
I00
sS'splitting'
p56
S'FileBased'
p57
sS'unitsPerJob'
p58
I1
sg13
S''
sg14
g15
((lp59
g54
ag58
aS'publication'
p60
aS'inputDBS'
p61
ag56
atRp62
sg19
g30
sg61
S'global'
p63
sg20
(dp64
sg22
g15
((ltRp65
sg25
Nsg60
I00
sbsg29
g3
(g9
g5
NtRp66
(dp67
S'outputFiles'
p68
(lp69
S'analysis.root'
p70
asg12
I00
sg13
S''
sg14
g15
((lp71
S'psetName'
p72
aS'pluginName'
p73
aS'inputFiles'
p74
ag68
aS'allowUndistributedCMSSW'
p75
atRp76
sg19
g29
sg20
(dp77
sg73
S'Analysis'
p78
sg22
g15
((ltRp79
sg75
I01
sg72
S'../../../TT-MC-Up.py'
p80
sg25
Nsg74
(lp81
S'../../../Configuration/data/PhaseIISummer16_25nsV3_MC.db'
p82
asbsbsS'voGroup'
p83
S''
sS'Server'
p84
S'cmsweb.cern.ch'
p85
sS'instance'
p86
S'prod'
p87
sS'RequestName'
p88
V171115_134947:shigginb_crab_20171115_074915
p89
sS'voRole'
p90
S'NULL'
p91
sS'Port'
p92
S''
s.